---
triple:          'arm64-apple-darwin'
binary-path:     '/Users/barisgokmen/Library/CloudStorage/GoogleDrive-barisgokmen06@gmail.com/My Drive/METU_MS/CNG_477_Computer_Graphics/CNG477_Assignment_1/main'
relocations:
  - { offsetInCU: 0x28C1E, offset: 0x28C1E, size: 0x8, addend: 0x0, symName: __ZNSt3__124__put_character_sequenceB7v160006IcNS_11char_traitsIcEEEERNS_13basic_ostreamIT_T0_EES7_PKS4_m, symObjAddr: 0x3E80, symBinAddr: 0x1000060EC, symSize: 0x168 }
  - { offsetInCU: 0x2BF43, offset: 0x2BF43, size: 0x8, addend: 0x0, symName: __ZNSt3__17getlineB7v160006IcNS_11char_traitsIcEENS_9allocatorIcEEEERNS_13basic_istreamIT_T0_EES9_RNS_12basic_stringIS6_S7_T1_EES6_, symObjAddr: 0x3398, symBinAddr: 0x100005604, symSize: 0x188 }
  - { offsetInCU: 0x2C222, offset: 0x2C222, size: 0x8, addend: 0x0, symName: __ZNSt3__1eqB7v160006IcNS_11char_traitsIcEENS_9allocatorIcEEEEbRKNS_12basic_stringIT_T0_T1_EEPKS6_, symObjAddr: 0x2750, symBinAddr: 0x1000049BC, symSize: 0xBC }
  - { offsetInCU: 0x2C92C, offset: 0x2C92C, size: 0x8, addend: 0x0, symName: __ZNSt3__120__throw_length_errorB7v160006EPKc, symObjAddr: 0x3080, symBinAddr: 0x1000052EC, symSize: 0x50 }
  - { offsetInCU: 0x2CB95, offset: 0x2CB95, size: 0x8, addend: 0x0, symName: __ZNSt3__120__throw_out_of_rangeB7v160006EPKc, symObjAddr: 0x3738, symBinAddr: 0x1000059A4, symSize: 0x50 }
  - { offsetInCU: 0x2CDC5, offset: 0x2CDC5, size: 0x8, addend: 0x0, symName: __ZNSt3__142__uninitialized_allocator_move_if_noexceptB7v160006INS_9allocatorI4meshEENS_16reverse_iteratorIPS2_EES6_S6_EET2_RT_T0_T1_S7_, symObjAddr: 0x3C88, symBinAddr: 0x100005EF4, symSize: 0x198 }
  - { offsetInCU: 0x2D5E2, offset: 0x2D5E2, size: 0x8, addend: 0x0, symName: __ZNSt3__116__pad_and_outputB7v160006IcNS_11char_traitsIcEEEENS_19ostreambuf_iteratorIT_T0_EES6_PKS4_S8_S8_RNS_8ios_baseES4_, symObjAddr: 0x3FE8, symBinAddr: 0x100006254, symSize: 0x194 }
  - { offsetInCU: 0x2DFBA, offset: 0x2DFBA, size: 0x8, addend: 0x0, symName: __ZSt28__throw_bad_array_new_lengthB7v160006v, symObjAddr: 0x30F4, symBinAddr: 0x100005360, symSize: 0x28 }
  - { offsetInCU: 0x33AB3, offset: 0x33AB3, size: 0x8, addend: 0x0, symName: __ZN6parser9getTokensERNSt3__16vectorINS0_12basic_stringIcNS0_11char_traitsIcEENS0_9allocatorIcEEEENS5_IS7_EEEES7_, symObjAddr: 0x0, symBinAddr: 0x10000226C, symSize: 0x318 }
  - { offsetInCU: 0x34A5A, offset: 0x34A5A, size: 0x8, addend: 0x0, symName: __ZNSt3__16vectorINS_12basic_stringIcNS_11char_traitsIcEENS_9allocatorIcEEEENS4_IS6_EEE21__push_back_slow_pathIRKS6_EEvOT_, symObjAddr: 0x3130, symBinAddr: 0x10000539C, symSize: 0x1F0 }
  - { offsetInCU: 0x374AE, offset: 0x374AE, size: 0x8, addend: 0x0, symName: __ZN6parserC2ENSt3__112basic_stringIcNS0_11char_traitsIcEENS0_9allocatorIcEEEE, symObjAddr: 0x324, symBinAddr: 0x100002590, symSize: 0x2160 }
  - { offsetInCU: 0x445D6, offset: 0x445D6, size: 0x8, addend: 0x0, symName: __ZNSt3__114basic_ifstreamIcNS_11char_traitsIcEEEC1ERKNS_12basic_stringIcS2_NS_9allocatorIcEEEEj, symObjAddr: 0x2484, symBinAddr: 0x1000046F0, symSize: 0x11C }
  - { offsetInCU: 0x44758, offset: 0x44758, size: 0x8, addend: 0x0, symName: __ZNSt3__16vectorINS_12basic_stringIcNS_11char_traitsIcEENS_9allocatorIcEEEENS4_IS6_EEE21__push_back_slow_pathIS6_EEvOT_, symObjAddr: 0x3520, symBinAddr: 0x10000578C, symSize: 0x1F0 }
  - { offsetInCU: 0x44FD4, offset: 0x44FD4, size: 0x8, addend: 0x0, symName: __ZNSt3__16vectorI10PointLightNS_9allocatorIS1_EEE9push_backB7v160006EOS1_, symObjAddr: 0x25A0, symBinAddr: 0x10000480C, symSize: 0x1B0 }
  - { offsetInCU: 0x459CC, offset: 0x459CC, size: 0x8, addend: 0x0, symName: __ZNSt3__1eqB7v160006IcNS_11char_traitsIcEENS_9allocatorIcEEEEbRKNS_12basic_stringIT_T0_T1_EEPKS6_, symObjAddr: 0x2750, symBinAddr: 0x1000049BC, symSize: 0xBC }
  - { offsetInCU: 0x459F1, offset: 0x459F1, size: 0x8, addend: 0x0, symName: __ZNSt3__16vectorI8MaterialNS_9allocatorIS1_EEE21__push_back_slow_pathIS1_EEvOT_, symObjAddr: 0x37AC, symBinAddr: 0x100005A18, symSize: 0x1DC }
  - { offsetInCU: 0x465B8, offset: 0x465B8, size: 0x8, addend: 0x0, symName: __ZNKSt3__16vectorI8MaterialNS_9allocatorIS1_EEE20__throw_length_errorB7v160006Ev, symObjAddr: 0x3988, symBinAddr: 0x100005BF4, symSize: 0x14 }
  - { offsetInCU: 0x465CC, offset: 0x465CC, size: 0x8, addend: 0x0, symName: __ZNSt3__16vectorI8triangleNS_9allocatorIS1_EEE9push_backB7v160006EOS1_, symObjAddr: 0x280C, symBinAddr: 0x100004A78, symSize: 0x1DC }
  - { offsetInCU: 0x471DB, offset: 0x471DB, size: 0x8, addend: 0x0, symName: __ZNSt3__16vectorINS_12basic_stringIcNS_11char_traitsIcEENS_9allocatorIcEEEENS4_IS6_EEED1B7v160006Ev, symObjAddr: 0x29E8, symBinAddr: 0x100004C54, symSize: 0x74 }
  - { offsetInCU: 0x471E6, offset: 0x471E6, size: 0x8, addend: 0x0, symName: __ZNSt3__16vectorI8triangleNS_9allocatorIS1_EEE6assignIPS1_Li0EEEvT_S7_, symObjAddr: 0x2E44, symBinAddr: 0x1000050B0, symSize: 0x228 }
  - { offsetInCU: 0x486EC, offset: 0x486EC, size: 0x8, addend: 0x0, symName: __ZNKSt3__16vectorI8triangleNS_9allocatorIS1_EEE20__throw_length_errorB7v160006Ev, symObjAddr: 0x306C, symBinAddr: 0x1000052D8, symSize: 0x14 }
  - { offsetInCU: 0x4870D, offset: 0x4870D, size: 0x8, addend: 0x0, symName: __ZNSt3__16vectorI4meshNS_9allocatorIS1_EEE21__push_back_slow_pathIS1_EEvOT_, symObjAddr: 0x39C4, symBinAddr: 0x100005C30, symSize: 0x244 }
  - { offsetInCU: 0x493D7, offset: 0x493D7, size: 0x8, addend: 0x0, symName: __ZNKSt3__16vectorI6sphereNS_9allocatorIS1_EEE20__throw_length_errorB7v160006Ev, symObjAddr: 0x39B0, symBinAddr: 0x100005C1C, symSize: 0x14 }
  - { offsetInCU: 0x49401, offset: 0x49401, size: 0x8, addend: 0x0, symName: __ZNSt3__16vectorI4meshNS_9allocatorIS1_EEE21__push_back_slow_pathIS1_EEvOT_, symObjAddr: 0x39C4, symBinAddr: 0x100005C30, symSize: 0x244 }
  - { offsetInCU: 0x4940C, offset: 0x4940C, size: 0x8, addend: 0x0, symName: __ZNKSt3__16vectorIN5Eigen6MatrixIfLi3ELi1ELi0ELi3ELi1EEENS_9allocatorIS3_EEE20__throw_length_errorB7v160006Ev, symObjAddr: 0x399C, symBinAddr: 0x100005C08, symSize: 0x14 }
  - { offsetInCU: 0x49436, offset: 0x49436, size: 0x8, addend: 0x0, symName: __ZNKSt3__16vectorI6sphereNS_9allocatorIS1_EEE20__throw_length_errorB7v160006Ev, symObjAddr: 0x39B0, symBinAddr: 0x100005C1C, symSize: 0x14 }
  - { offsetInCU: 0x49441, offset: 0x49441, size: 0x8, addend: 0x0, symName: __ZNKSt3__16vectorI8triangleNS_9allocatorIS1_EEE20__throw_length_errorB7v160006Ev, symObjAddr: 0x306C, symBinAddr: 0x1000052D8, symSize: 0x14 }
  - { offsetInCU: 0x4946B, offset: 0x4946B, size: 0x8, addend: 0x0, symName: __ZNSt3__120__throw_length_errorB7v160006EPKc, symObjAddr: 0x3080, symBinAddr: 0x1000052EC, symSize: 0x50 }
  - { offsetInCU: 0x49476, offset: 0x49476, size: 0x8, addend: 0x0, symName: __ZNSt3__16vectorINS_12basic_stringIcNS_11char_traitsIcEENS_9allocatorIcEEEENS4_IS6_EEED1B7v160006Ev, symObjAddr: 0x29E8, symBinAddr: 0x100004C54, symSize: 0x74 }
  - { offsetInCU: 0x49743, offset: 0x49743, size: 0x8, addend: 0x0, symName: __ZNSt3__114basic_ifstreamIcNS_11char_traitsIcEEED1Ev, symObjAddr: 0x2A5C, symBinAddr: 0x100004CC8, symSize: 0x8C }
  - { offsetInCU: 0x49785, offset: 0x49785, size: 0x8, addend: 0x0, symName: __ZNSt3__16vectorI4meshNS_9allocatorIS1_EEED1B7v160006Ev, symObjAddr: 0x2AE8, symBinAddr: 0x100004D54, symSize: 0x74 }
  - { offsetInCU: 0x49F44, offset: 0x49F44, size: 0x8, addend: 0x0, symName: __ZNKSt3__16vectorI10PointLightNS_9allocatorIS1_EEE20__throw_length_errorB7v160006Ev, symObjAddr: 0x3710, symBinAddr: 0x10000597C, symSize: 0x14 }
  - { offsetInCU: 0x49F6E, offset: 0x49F6E, size: 0x8, addend: 0x0, symName: __ZNKSt3__112basic_stringIcNS_11char_traitsIcEENS_9allocatorIcEEE20__throw_out_of_rangeB7v160006Ev, symObjAddr: 0x3724, symBinAddr: 0x100005990, symSize: 0x14 }
  - { offsetInCU: 0x49FA2, offset: 0x49FA2, size: 0x8, addend: 0x0, symName: __ZNKSt3__112basic_stringIcNS_11char_traitsIcEENS_9allocatorIcEEE20__throw_out_of_rangeB7v160006Ev, symObjAddr: 0x3724, symBinAddr: 0x100005990, symSize: 0x14 }
  - { offsetInCU: 0x49FCC, offset: 0x49FCC, size: 0x8, addend: 0x0, symName: __ZNSt3__120__throw_out_of_rangeB7v160006EPKc, symObjAddr: 0x3738, symBinAddr: 0x1000059A4, symSize: 0x50 }
  - { offsetInCU: 0x4A3B9, offset: 0x4A3B9, size: 0x8, addend: 0x0, symName: __ZN6parserC1ENSt3__112basic_stringIcNS0_11char_traitsIcEENS0_9allocatorIcEEEE, symObjAddr: 0x2B5C, symBinAddr: 0x100004DC8, symSize: 0x4 }
  - { offsetInCU: 0x4A3F6, offset: 0x4A3F6, size: 0x8, addend: 0x0, symName: __ZN6parserC1ENSt3__112basic_stringIcNS0_11char_traitsIcEENS0_9allocatorIcEEEE, symObjAddr: 0x2B5C, symBinAddr: 0x100004DC8, symSize: 0x4 }
  - { offsetInCU: 0x4A436, offset: 0x4A436, size: 0x8, addend: 0x0, symName: __ZN6parser10print_fileEv, symObjAddr: 0x2B60, symBinAddr: 0x100004DCC, symSize: 0x118 }
  - { offsetInCU: 0x4B4F6, offset: 0x4B4F6, size: 0x8, addend: 0x0, symName: __ZN6parser10return_camEv, symObjAddr: 0x2C78, symBinAddr: 0x100004EE4, symSize: 0x1CC }
  - { offsetInCU: 0x4B53F, offset: 0x4B53F, size: 0x8, addend: 0x0, symName: __ZN6parser10return_camEv, symObjAddr: 0x2C78, symBinAddr: 0x100004EE4, symSize: 0x1CC }
  - { offsetInCU: 0x4B570, offset: 0x4B570, size: 0x8, addend: 0x0, symName: __ZN6parser10return_camEv, symObjAddr: 0x2C78, symBinAddr: 0x100004EE4, symSize: 0x1CC }
  - { offsetInCU: 0x4B58D, offset: 0x4B58D, size: 0x8, addend: 0x0, symName: __ZN6parser10return_camEv, symObjAddr: 0x2C78, symBinAddr: 0x100004EE4, symSize: 0x1CC }
  - { offsetInCU: 0x4B5A1, offset: 0x4B5A1, size: 0x8, addend: 0x0, symName: __ZN6parser10return_camEv, symObjAddr: 0x2C78, symBinAddr: 0x100004EE4, symSize: 0x1CC }
  - { offsetInCU: 0x4B5C0, offset: 0x4B5C0, size: 0x8, addend: 0x0, symName: __ZN6parser10return_camEv, symObjAddr: 0x2C78, symBinAddr: 0x100004EE4, symSize: 0x1CC }
  - { offsetInCU: 0x4B5D2, offset: 0x4B5D2, size: 0x8, addend: 0x0, symName: __ZN6parser10return_camEv, symObjAddr: 0x2C78, symBinAddr: 0x100004EE4, symSize: 0x1CC }
  - { offsetInCU: 0x4B5ED, offset: 0x4B5ED, size: 0x8, addend: 0x0, symName: __ZN6parser10return_camEv, symObjAddr: 0x2C78, symBinAddr: 0x100004EE4, symSize: 0x1CC }
  - { offsetInCU: 0x4B602, offset: 0x4B602, size: 0x8, addend: 0x0, symName: __ZN6parser10return_camEv, symObjAddr: 0x2C78, symBinAddr: 0x100004EE4, symSize: 0x1CC }
  - { offsetInCU: 0x4B622, offset: 0x4B622, size: 0x8, addend: 0x0, symName: __ZN6parser10return_camEv, symObjAddr: 0x2C78, symBinAddr: 0x100004EE4, symSize: 0x1CC }
  - { offsetInCU: 0x4B643, offset: 0x4B643, size: 0x8, addend: 0x0, symName: __ZN6parser10return_camEv, symObjAddr: 0x2C78, symBinAddr: 0x100004EE4, symSize: 0x1CC }
  - { offsetInCU: 0x4B664, offset: 0x4B664, size: 0x8, addend: 0x0, symName: __ZN6parser10return_camEv, symObjAddr: 0x2C78, symBinAddr: 0x100004EE4, symSize: 0x1CC }
  - { offsetInCU: 0x4B679, offset: 0x4B679, size: 0x8, addend: 0x0, symName: __ZN6parser10return_camEv, symObjAddr: 0x2C78, symBinAddr: 0x100004EE4, symSize: 0x1CC }
  - { offsetInCU: 0x4DBF4, offset: 0x4DBF4, size: 0x8, addend: 0x0, symName: __ZNSt12length_errorC1B7v160006EPKc, symObjAddr: 0x30D0, symBinAddr: 0x10000533C, symSize: 0x24 }
  - { offsetInCU: 0x4DC7C, offset: 0x4DC7C, size: 0x8, addend: 0x0, symName: __ZNKSt3__112basic_stringIcNS_11char_traitsIcEENS_9allocatorIcEEE20__throw_length_errorB7v160006Ev, symObjAddr: 0x311C, symBinAddr: 0x100005388, symSize: 0x14 }
  - { offsetInCU: 0x4DCA6, offset: 0x4DCA6, size: 0x8, addend: 0x0, symName: __ZNSt3__16vectorINS_12basic_stringIcNS_11char_traitsIcEENS_9allocatorIcEEEENS4_IS6_EEE21__push_back_slow_pathIRKS6_EEvOT_, symObjAddr: 0x3130, symBinAddr: 0x10000539C, symSize: 0x1F0 }
  - { offsetInCU: 0x4DFDF, offset: 0x4DFDF, size: 0x8, addend: 0x0, symName: __ZNKSt3__16vectorINS_12basic_stringIcNS_11char_traitsIcEENS_9allocatorIcEEEENS4_IS6_EEE20__throw_length_errorB7v160006Ev, symObjAddr: 0x3384, symBinAddr: 0x1000055F0, symSize: 0x14 }
  - { offsetInCU: 0x4E009, offset: 0x4E009, size: 0x8, addend: 0x0, symName: __ZNSt3__17getlineB7v160006IcNS_11char_traitsIcEENS_9allocatorIcEEEERNS_13basic_istreamIT_T0_EES9_RNS_12basic_stringIS6_S7_T1_EES6_, symObjAddr: 0x3398, symBinAddr: 0x100005604, symSize: 0x188 }
  - { offsetInCU: 0x4E014, offset: 0x4E014, size: 0x8, addend: 0x0, symName: __ZNSt3__114__split_bufferINS_12basic_stringIcNS_11char_traitsIcEENS_9allocatorIcEEEERNS4_IS6_EEED1Ev, symObjAddr: 0x3320, symBinAddr: 0x10000558C, symSize: 0x64 }
  - { offsetInCU: 0x4E37A, offset: 0x4E37A, size: 0x8, addend: 0x0, symName: __ZNSt12out_of_rangeC1B7v160006EPKc, symObjAddr: 0x3788, symBinAddr: 0x1000059F4, symSize: 0x24 }
  - { offsetInCU: 0x4E62A, offset: 0x4E62A, size: 0x8, addend: 0x0, symName: __ZNKSt3__16vectorI8MaterialNS_9allocatorIS1_EEE20__throw_length_errorB7v160006Ev, symObjAddr: 0x3988, symBinAddr: 0x100005BF4, symSize: 0x14 }
  - { offsetInCU: 0x4E654, offset: 0x4E654, size: 0x8, addend: 0x0, symName: __ZNKSt3__16vectorIN5Eigen6MatrixIfLi3ELi1ELi0ELi3ELi1EEENS_9allocatorIS3_EEE20__throw_length_errorB7v160006Ev, symObjAddr: 0x399C, symBinAddr: 0x100005C08, symSize: 0x14 }
  - { offsetInCU: 0x4E8F0, offset: 0x4E8F0, size: 0x8, addend: 0x0, symName: __ZNKSt3__16vectorI4meshNS_9allocatorIS1_EEE20__throw_length_errorB7v160006Ev, symObjAddr: 0x3C74, symBinAddr: 0x100005EE0, symSize: 0x14 }
  - { offsetInCU: 0x4E91A, offset: 0x4E91A, size: 0x8, addend: 0x0, symName: __ZNSt3__142__uninitialized_allocator_move_if_noexceptB7v160006INS_9allocatorI4meshEENS_16reverse_iteratorIPS2_EES6_S6_EET2_RT_T0_T1_S7_, symObjAddr: 0x3C88, symBinAddr: 0x100005EF4, symSize: 0x198 }
  - { offsetInCU: 0x4E925, offset: 0x4E925, size: 0x8, addend: 0x0, symName: __ZNSt3__114__split_bufferI4meshRNS_9allocatorIS1_EEED1Ev, symObjAddr: 0x3C08, symBinAddr: 0x100005E74, symSize: 0x6C }
  - { offsetInCU: 0x4ECF5, offset: 0x4ECF5, size: 0x8, addend: 0x0, symName: __ZNSt3__128__exception_guard_exceptionsINS_29_AllocatorDestroyRangeReverseINS_9allocatorI4meshEENS_16reverse_iteratorIPS3_EEEEED1B7v160006Ev, symObjAddr: 0x3E20, symBinAddr: 0x10000608C, symSize: 0x60 }
  - { offsetInCU: 0x3121B, offset: 0x80482, size: 0x8, addend: 0x0, symName: __Z11write_colorRNSt3__113basic_ostreamIcNS_11char_traitsIcEEEEN5Eigen6MatrixIfLi3ELi1ELi0ELi3ELi1EEE, symObjAddr: 0x0, symBinAddr: 0x1000063E8, symSize: 0x9C }
  - { offsetInCU: 0x320F7, offset: 0x8135E, size: 0x8, addend: 0x0, symName: __Z9ray_colorRK3rayRNSt3__16vectorI6sphereNS2_9allocatorIS4_EEEERNS3_I8triangleNS5_IS9_EEEERNS3_I4meshNS5_ISD_EEEERNS3_I10PointLightNS5_ISH_EEEERNS3_I8MaterialNS5_ISL_EEEEN5Eigen6MatrixIfLi3ELi1ELi0ELi3ELi1EEESR_, symObjAddr: 0x9C, symBinAddr: 0x100006484, symSize: 0x6A8 }
  - { offsetInCU: 0x34D4A, offset: 0x83FB1, size: 0x8, addend: 0x0, symName: __ZN6sphere9get_colorERNSt3__16vectorI10PointLightNS0_9allocatorIS2_EEEERK3rayR8MaterialN5Eigen6MatrixIfLi3ELi1ELi0ELi3ELi1EEE, symObjAddr: 0x744, symBinAddr: 0x100006B2C, symSize: 0x33C }
  - { offsetInCU: 0x3AD53, offset: 0x89FBA, size: 0x8, addend: 0x0, symName: _main, symObjAddr: 0xA8C, symBinAddr: 0x100006E68, symSize: 0x564 }
  - { offsetInCU: 0x3D9CC, offset: 0x8CC33, size: 0x8, addend: 0x0, symName: __ZN6parserD2Ev, symObjAddr: 0x1078, symBinAddr: 0x1000073CC, symSize: 0x110 }
...
